target datalayout = "e-m:e-p270:32:32-p271:32:32-p272:64:64-i64:64-i128:128-f80:128-n8:16:32:64-S128"
target triple = "x86_64-pc-linux-gnu"

%struct.cbs_st = type { ptr, i64 }

@.str = private unnamed_addr constant [123 x i8] c"generated/home/dtcxzyw/WorkSpace/Projects/compilers/llvm-opt-benchmark/bench/libquic/libquic/boringssl/crypto/x509/pkcs7.c\00", align 1

; Function Attrs: nounwind uwtable
define hidden i32 @PKCS7_get_CRLs(ptr noundef %0, ptr noundef %1) #0 {
  %3 = alloca i32, align 4
  %4 = alloca ptr, align 8
  %5 = alloca ptr, align 8
  %6 = alloca %struct.cbs_st, align 8
  %7 = alloca %struct.cbs_st, align 8
  %8 = alloca ptr, align 8
  %9 = alloca i32, align 4
  %10 = alloca i64, align 8
  %11 = alloca i32, align 4
  %12 = alloca %struct.cbs_st, align 8
  %13 = alloca ptr, align 8
  %14 = alloca ptr, align 8
  store ptr %0, ptr %4, align 8, !tbaa !26
  store ptr %1, ptr %5, align 8, !tbaa !11
  call void @llvm.lifetime.start.p0(i64 16, ptr %6) #4
  call void @llvm.lifetime.start.p0(i64 16, ptr %7) #4
  call void @llvm.lifetime.start.p0(i64 8, ptr %8) #4
  store ptr null, ptr %8, align 8, !tbaa !13
  call void @llvm.lifetime.start.p0(i64 4, ptr %9) #4
  store i32 0, ptr %9, align 4, !tbaa !15
  call void @llvm.lifetime.start.p0(i64 8, ptr %10) #4
  %15 = load ptr, ptr %4, align 8, !tbaa !26
  %16 = call i64 @sk_num(ptr noundef %15)
  store i64 %16, ptr %10, align 8, !tbaa !17
  %17 = load ptr, ptr %5, align 8, !tbaa !11
  %18 = call i32 @pkcs7_parse_header(ptr noundef %8, ptr noundef %6, ptr noundef %17)
  %19 = icmp ne i32 %18, 0
  br i1 %19, label %21, label %20

20:                                               ; preds = %2
  store i32 0, ptr %3, align 4
  store i32 1, ptr %11, align 4
  br label %83

21:                                               ; preds = %2
  %22 = call i32 @CBS_peek_asn1_tag(ptr noundef %6, i32 noundef 160)
  %23 = icmp ne i32 %22, 0
  br i1 %23, label %24, label %28

24:                                               ; preds = %21
  %25 = call i32 @CBS_get_asn1(ptr noundef %6, ptr noundef null, i32 noundef 160)
  %26 = icmp ne i32 %25, 0
  br i1 %26, label %28, label %27

27:                                               ; preds = %24
  br label %63

28:                                               ; preds = %24, %21
  %29 = call i32 @CBS_get_asn1(ptr noundef %6, ptr noundef %7, i32 noundef 161)
  %30 = icmp ne i32 %29, 0
  br i1 %30, label %32, label %31

31:                                               ; preds = %28
  call void @ERR_put_error(i32 noundef 11, i32 noundef 0, i32 noundef 123, ptr noundef @.str, i32 noundef 175)
  br label %63

32:                                               ; preds = %28
  br label %33

33:                                               ; preds = %61, %32
  %34 = call i64 @CBS_len(ptr noundef %7)
  %35 = icmp ugt i64 %34, 0
  br i1 %35, label %36, label %62

36:                                               ; preds = %33
  call void @llvm.lifetime.start.p0(i64 16, ptr %12) #4
  call void @llvm.lifetime.start.p0(i64 8, ptr %13) #4
  call void @llvm.lifetime.start.p0(i64 8, ptr %14) #4
  %37 = call i32 @CBS_get_asn1_element(ptr noundef %7, ptr noundef %12, i32 noundef 48)
  %38 = icmp ne i32 %37, 0
  br i1 %38, label %40, label %39

39:                                               ; preds = %36
  store i32 2, ptr %11, align 4
  br label %59

40:                                               ; preds = %36
  %41 = call i64 @CBS_len(ptr noundef %12)
  %42 = icmp ugt i64 %41, 9223372036854775807
  br i1 %42, label %43, label %44

43:                                               ; preds = %40
  store i32 2, ptr %11, align 4
  br label %59

44:                                               ; preds = %40
  %45 = call ptr @CBS_data(ptr noundef %12)
  store ptr %45, ptr %14, align 8, !tbaa !13
  %46 = call i64 @CBS_len(ptr noundef %12)
  %47 = call ptr @d2i_X509_CRL(ptr noundef null, ptr noundef %14, i64 noundef %46)
  store ptr %47, ptr %13, align 8, !tbaa !28
  %48 = load ptr, ptr %13, align 8, !tbaa !28
  %49 = icmp ne ptr %48, null
  br i1 %49, label %51, label %50

50:                                               ; preds = %44
  store i32 2, ptr %11, align 4
  br label %59

51:                                               ; preds = %44
  %52 = load ptr, ptr %4, align 8, !tbaa !26
  %53 = load ptr, ptr %13, align 8, !tbaa !28
  %54 = call i64 @sk_push(ptr noundef %52, ptr noundef %53)
  %55 = icmp eq i64 %54, 0
  br i1 %55, label %56, label %58

56:                                               ; preds = %51
  %57 = load ptr, ptr %13, align 8, !tbaa !28
  call void @X509_CRL_free(ptr noundef %57)
  store i32 2, ptr %11, align 4
  br label %59

58:                                               ; preds = %51
  store i32 0, ptr %11, align 4
  br label %59

59:                                               ; preds = %56, %50, %43, %39, %58
  call void @llvm.lifetime.end.p0(i64 8, ptr %14) #4
  call void @llvm.lifetime.end.p0(i64 8, ptr %13) #4
  call void @llvm.lifetime.end.p0(i64 16, ptr %12) #4
  %60 = load i32, ptr %11, align 4
  switch i32 %60, label %83 [
    i32 0, label %61
    i32 2, label %63
  ]

61:                                               ; preds = %59
  br label %33, !llvm.loop !30

62:                                               ; preds = %33
  store i32 1, ptr %9, align 4, !tbaa !15
  br label %63

63:                                               ; preds = %62, %59, %31, %27
  %64 = load ptr, ptr %8, align 8, !tbaa !13
  %65 = icmp ne ptr %64, null
  br i1 %65, label %66, label %68

66:                                               ; preds = %63
  %67 = load ptr, ptr %8, align 8, !tbaa !13
  call void @free(ptr noundef %67) #4
  br label %68

68:                                               ; preds = %66, %63
  %69 = load i32, ptr %9, align 4, !tbaa !15
  %70 = icmp ne i32 %69, 0
  br i1 %70, label %81, label %71

71:                                               ; preds = %68
  br label %72

72:                                               ; preds = %77, %71
  %73 = load ptr, ptr %4, align 8, !tbaa !26
  %74 = call i64 @sk_num(ptr noundef %73)
  %75 = load i64, ptr %10, align 8, !tbaa !17
  %76 = icmp ne i64 %74, %75
  br i1 %76, label %77, label %80

77:                                               ; preds = %72
  %78 = load ptr, ptr %4, align 8, !tbaa !26
  %79 = call ptr @sk_pop(ptr noundef %78)
  call void @X509_CRL_free(ptr noundef %79)
  br label %72, !llvm.loop !31

80:                                               ; preds = %72
  br label %81

81:                                               ; preds = %80, %68
  %82 = load i32, ptr %9, align 4, !tbaa !15
  store i32 %82, ptr %3, align 4
  store i32 1, ptr %11, align 4
  br label %83

83:                                               ; preds = %81, %59, %20
  call void @llvm.lifetime.end.p0(i64 8, ptr %10) #4
  call void @llvm.lifetime.end.p0(i64 4, ptr %9) #4
  call void @llvm.lifetime.end.p0(i64 8, ptr %8) #4
  call void @llvm.lifetime.end.p0(i64 16, ptr %7) #4
  call void @llvm.lifetime.end.p0(i64 16, ptr %6) #4
  %84 = load i32, ptr %3, align 4
  ret i32 %84
}