; Function Attrs: nounwind uwtable
define hidden range(i32 0, 2) i32 @PKCS7_get_CRLs(ptr noundef %0, ptr noundef %1) local_unnamed_addr #0 {
  %3 = alloca %struct.cbs_st, align 8
  %4 = alloca %struct.cbs_st, align 8
  %5 = alloca ptr, align 8
  %6 = alloca %struct.cbs_st, align 8
  %7 = alloca ptr, align 8
  call void @llvm.lifetime.start.p0(i64 16, ptr nonnull %3) #4
  call void @llvm.lifetime.start.p0(i64 16, ptr nonnull %4) #4
  call void @llvm.lifetime.start.p0(i64 8, ptr nonnull %5) #4
  store ptr null, ptr %5, align 8, !tbaa !6
  %8 = tail call i64 @sk_num(ptr noundef %0) #4
  %9 = call fastcc i32 @pkcs7_parse_header(ptr noundef %5, ptr noundef %3, ptr noundef %1)
  %.not = icmp eq i32 %9, 0
  br i1 %.not, label %.loopexit, label %10

10:                                               ; preds = %2
  %11 = call i32 @CBS_peek_asn1_tag(ptr noundef nonnull %3, i32 noundef 160) #4
  %.not16 = icmp eq i32 %11, 0
  br i1 %.not16, label %14, label %12

12:                                               ; preds = %10
  %13 = call i32 @CBS_get_asn1(ptr noundef nonnull %3, ptr noundef null, i32 noundef 160) #4
  %.not17 = icmp eq i32 %13, 0
  br i1 %.not17, label %.loopexit29, label %14

14:                                               ; preds = %12, %10
  %15 = call i32 @CBS_get_asn1(ptr noundef nonnull %3, ptr noundef nonnull %4, i32 noundef 161) #4
  %.not18 = icmp eq i32 %15, 0
  br i1 %.not18, label %17, label %.preheader28

.preheader28:                                     ; preds = %14
  %16 = call i64 @CBS_len(ptr noundef nonnull %4) #4
  %.not1930 = icmp eq i64 %16, 0
  br i1 %.not1930, label %.loopexit29, label %.lr.ph

17:                                               ; preds = %14
  call void @ERR_put_error(i32 noundef 11, i32 noundef 0, i32 noundef 123, ptr noundef nonnull @.str, i32 noundef 175) #4
  br label %.loopexit29

.lr.ph:                                           ; preds = %.preheader28, %30
  call void @llvm.lifetime.start.p0(i64 16, ptr nonnull %6) #4
  call void @llvm.lifetime.start.p0(i64 8, ptr nonnull %7) #4
  %18 = call i32 @CBS_get_asn1_element(ptr noundef nonnull %4, ptr noundef nonnull %6, i32 noundef 48) #4
  %.not20 = icmp eq i32 %18, 0
  br i1 %.not20, label %.thread, label %19

19:                                               ; preds = %.lr.ph
  %20 = call i64 @CBS_len(ptr noundef nonnull %6) #4
  %21 = icmp slt i64 %20, 0
  br i1 %21, label %.thread, label %22

22:                                               ; preds = %19
  %23 = call ptr @CBS_data(ptr noundef nonnull %6) #4
  store ptr %23, ptr %7, align 8, !tbaa !6
  %24 = call i64 @CBS_len(ptr noundef nonnull %6) #4
  %25 = call ptr @d2i_X509_CRL(ptr noundef null, ptr noundef nonnull %7, i64 noundef %24) #4
  %.not21 = icmp eq ptr %25, null
  br i1 %.not21, label %.thread, label %26

26:                                               ; preds = %22
  %27 = call i64 @sk_push(ptr noundef %0, ptr noundef nonnull %25) #4
  %28 = icmp eq i64 %27, 0
  br i1 %28, label %29, label %30

29:                                               ; preds = %26
  call void @X509_CRL_free(ptr noundef nonnull %25) #4
  br label %.thread

.thread:                                          ; preds = %.lr.ph, %19, %22, %29
  call void @llvm.lifetime.end.p0(i64 8, ptr nonnull %7) #4
  call void @llvm.lifetime.end.p0(i64 16, ptr nonnull %6) #4
  br label %.loopexit29

30:                                               ; preds = %26
  call void @llvm.lifetime.end.p0(i64 8, ptr nonnull %7) #4
  call void @llvm.lifetime.end.p0(i64 16, ptr nonnull %6) #4
  %31 = call i64 @CBS_len(ptr noundef nonnull %4) #4
  %.not19 = icmp eq i64 %31, 0
  br i1 %.not19, label %.loopexit29, label %.lr.ph

.loopexit29:                                      ; preds = %30, %.preheader28, %.thread, %12, %17
  %.not23 = phi i1 [ true, %17 ], [ true, %12 ], [ true, %.thread ], [ false, %.preheader28 ], [ false, %30 ]
  %.013 = phi i32 [ 0, %17 ], [ 0, %12 ], [ 0, %.thread ], [ 1, %.preheader28 ], [ 1, %30 ]
  %32 = load ptr, ptr %5, align 8, !tbaa !6
  %.not22 = icmp eq ptr %32, null
  br i1 %.not22, label %34, label %33

33:                                               ; preds = %.loopexit29
  call void @free(ptr noundef nonnull %32) #4
  br label %34

34:                                               ; preds = %33, %.loopexit29
  br i1 %.not23, label %.preheader, label %.loopexit

.preheader:                                       ; preds = %34
  %35 = call i64 @sk_num(ptr noundef %0) #4
  %.not2431 = icmp eq i64 %35, %8
  br i1 %.not2431, label %.loopexit, label %.lr.ph32

.lr.ph32:                                         ; preds = %.preheader, %.lr.ph32
  %36 = call ptr @sk_pop(ptr noundef %0) #4
  call void @X509_CRL_free(ptr noundef %36) #4
  %37 = call i64 @sk_num(ptr noundef %0) #4
  %.not24 = icmp eq i64 %37, %8
  br i1 %.not24, label %.loopexit, label %.lr.ph32, !llvm.loop !15

.loopexit:                                        ; preds = %.lr.ph32, %.preheader, %34, %2
  %.0 = phi i32 [ 0, %2 ], [ %.013, %34 ], [ %.013, %.preheader ], [ %.013, %.lr.ph32 ]
  call void @llvm.lifetime.end.p0(i64 8, ptr nonnull %5) #4
  call void @llvm.lifetime.end.p0(i64 16, ptr nonnull %4) #4
  call void @llvm.lifetime.end.p0(i64 16, ptr nonnull %3) #4
  ret i32 %.0
}